(i__main__
CMap
p0
(dp1
S'regions'
p2
(lp3
(i__main__
CRegion
p4
(dp5
S'xpos'
p6
I769
sS'name'
p7
S'Roma'
p8
sS'ypos'
p9
I758
sba(i__main__
CRegion
p10
(dp11
g6
I878
sg7
S'Brindisi'
p12
sg9
I784
sba(i__main__
CRegion
p13
(dp14
g6
I916
sg7
S'Bruttium'
p15
sg9
I852
sba(i__main__
CRegion
p16
(dp17
g6
I763
sg7
S'Etruria'
p18
sg9
I703
sba(i__main__
CRegion
p19
(dp20
g6
I834
sg7
S'Sicilia'
p21
sg9
I967
sba(i__main__
CRegion
p22
(dp23
g6
I696
sg7
S'Sardinia'
p24
sg9
I833
sba(i__main__
CRegion
p25
(dp26
g6
I711
sg7
S'Corsica'
p27
sg9
I757
sbasb.